; Function Attrs: uwtable
define void @_ZThn16_NK11QhullPlugin10filterInfoEi(ptr dead_on_unwind noalias nocapture writable writeonly sret(%class.QString) align 8 %0, ptr nocapture noundef readnone %1, i32 noundef %2) unnamed_addr #14 align 2 {
  tail call void @llvm.experimental.noalias.scope.decl(metadata !24)
  switch i32 %2, label %12 [
    i32 0, label %4
    i32 1, label %6
    i32 2, label %8
    i32 3, label %10
  ]

4:                                                ; preds = %3
  %5 = tail call noundef ptr @_ZN7QString16fromAscii_helperEPKci(ptr noundef nonnull @.str.16, i32 noundef 230), !noalias !24
  br label %_ZNK11QhullPlugin10filterInfoEi.exit

6:                                                ; preds = %3
  %7 = tail call noundef ptr @_ZN7QString16fromAscii_helperEPKci(ptr noundef nonnull @.str.17, i32 noundef 590), !noalias !24
  br label %_ZNK11QhullPlugin10filterInfoEi.exit

8:                                                ; preds = %3
  %9 = tail call noundef ptr @_ZN7QString16fromAscii_helperEPKci(ptr noundef nonnull @.str.18, i32 noundef 637), !noalias !24
  br label %_ZNK11QhullPlugin10filterInfoEi.exit

10:                                               ; preds = %3
  %11 = tail call noundef ptr @_ZN7QString16fromAscii_helperEPKci(ptr noundef nonnull @.str.19, i32 noundef 426), !noalias !24
  br label %_ZNK11QhullPlugin10filterInfoEi.exit

12:                                               ; preds = %3
  %13 = tail call noundef ptr @_ZN7QString16fromAscii_helperEPKci(ptr noundef nonnull @.str.20, i32 noundef 21), !noalias !24
  br label %_ZNK11QhullPlugin10filterInfoEi.exit

_ZNK11QhullPlugin10filterInfoEi.exit:             ; preds = %4, %6, %8, %10, %12
  %.sink.i = phi ptr [ %13, %12 ], [ %11, %10 ], [ %9, %8 ], [ %7, %6 ], [ %5, %4 ]
  store ptr %.sink.i, ptr %0, align 8, !alias.scope !24
  ret void
}